target datalayout = "e-m:e-p270:32:32-p271:32:32-p272:64:64-i64:64-i128:128-f80:128-n8:16:32:64-S128"
target triple = "x86_64-pc-linux-gnu"

%struct.pmix_pointer_array_t = type { %struct.pmix_object_t, i32, i32, i32, i32, i32, ptr, ptr }
%struct.pmix_object_t = type { %union.pthread_mutex_t, ptr, i32, %struct.pmix_tma }
%union.pthread_mutex_t = type { %struct.__pthread_mutex_s }
%struct.__pthread_mutex_s = type { i32, i32, i32, i32, i32, i16, i16, %struct.__pthread_internal_list }
%struct.__pthread_internal_list = type { ptr, ptr }
%struct.pmix_tma = type { ptr, ptr, ptr, ptr, ptr, ptr, ptr, ptr }
%struct.pmix_proc = type { [256 x i8], i32 }
%struct.pmix_list_t = type { %struct.pmix_object_t, %struct.pmix_list_item_t, i64 }
%struct.pmix_list_item_t = type { %struct.pmix_object_t, ptr, ptr, i32 }
%struct.pmix_server_globals_t = type { i8, i32, i32, %struct.pmix_pointer_array_t, %struct.pmix_pointer_array_t, i32, i8, %struct.pmix_proc, %struct.pmix_list_t, i8, i8, i8, i8, i8, %struct.pmix_proc, i8, ptr, ptr, i64, %struct.pmix_list_t, %struct.pmix_list_t, %struct.pmix_list_t }

@.str = private unnamed_addr constant [5 x i8] c"prte\00", align 1
@.str.1 = private unnamed_addr constant [5 x i8] c"pmix\00", align 1
@.str.2 = private unnamed_addr constant [15 x i8] c"server_verbose\00", align 1
@.str.3 = private unnamed_addr constant [32 x i8] c"Debug verbosity for PMIx server\00", align 1
@.str.4 = private unnamed_addr constant [16 x i8] c"wait_for_server\00", align 1
@.str.5 = private unnamed_addr constant [61 x i8] c"Whether or not to wait for the session-level server to start\00", align 1
@.str.6 = private unnamed_addr constant [15 x i8] c"session_server\00", align 1
@.str.7 = private unnamed_addr constant [61 x i8] c"Whether or not to drop a session-level tool rendezvous point\00", align 1
@.str.8 = private unnamed_addr constant [14 x i8] c"system_server\00", align 1
@.str.9 = private unnamed_addr constant [60 x i8] c"Whether or not to drop a system-level tool rendezvous point\00", align 1
@.str.10 = private unnamed_addr constant [19 x i8] c"generate_distances\00", align 1
@.str.11 = private unnamed_addr constant [77 x i8] c"Device types whose distances are to be provided (default=fabric,gpu,network)\00", align 1
@generate_dist = internal global ptr @.str.55, align 8
@.str.12 = private unnamed_addr constant [7 x i8] c"fabric\00", align 1
@.str.13 = private unnamed_addr constant [4 x i8] c"gpu\00", align 1
@.str.14 = private unnamed_addr constant [8 x i8] c"network\00", align 1
@.str.15 = private unnamed_addr constant [18 x i8] c"system_controller\00", align 1
@.str.16 = private unnamed_addr constant [52 x i8] c"Whether or not to act as the system-wide controller\00", align 1

; Function Attrs: nounwind uwtable
define void @pmix_server_register_params() #0 {
  %1 = alloca i32, align 4
  %2 = alloca ptr, align 8
  call void @llvm.lifetime.start.p0(i64 4, ptr %1) #13
  store i32 -1, ptr getelementptr inbounds nuw (%struct.pmix_server_globals_t, ptr @prte_pmix_server_globals, i32 0, i32 1), align 4, !tbaa !3
  %3 = call i32 @pmix_mca_base_var_register(ptr noundef @.str, ptr noundef @.str.1, ptr noundef null, ptr noundef @.str.2, ptr noundef @.str.3, i32 noundef 0, ptr noundef getelementptr inbounds nuw (%struct.pmix_server_globals_t, ptr @prte_pmix_server_globals, i32 0, i32 1))
  %4 = load i32, ptr getelementptr inbounds nuw (%struct.pmix_server_globals_t, ptr @prte_pmix_server_globals, i32 0, i32 1), align 4, !tbaa !3
  %5 = icmp sle i32 0, %4
  br i1 %5, label %6, label %10

6:                                                ; preds = %0
  %7 = call i32 @pmix_output_open(ptr noundef null)
  store i32 %7, ptr getelementptr inbounds nuw (%struct.pmix_server_globals_t, ptr @prte_pmix_server_globals, i32 0, i32 2), align 8, !tbaa !21
  %8 = load i32, ptr getelementptr inbounds nuw (%struct.pmix_server_globals_t, ptr @prte_pmix_server_globals, i32 0, i32 2), align 8, !tbaa !21
  %9 = load i32, ptr getelementptr inbounds nuw (%struct.pmix_server_globals_t, ptr @prte_pmix_server_globals, i32 0, i32 1), align 4, !tbaa !3
  call void @pmix_output_set_verbosity(i32 noundef %8, i32 noundef %9)
  br label %10

10:                                               ; preds = %6, %0
  store i8 0, ptr getelementptr inbounds nuw (%struct.pmix_server_globals_t, ptr @prte_pmix_server_globals, i32 0, i32 6), align 4, !tbaa !22
  %11 = call i32 @pmix_mca_base_var_register(ptr noundef @.str, ptr noundef @.str.1, ptr noundef null, ptr noundef @.str.4, ptr noundef @.str.5, i32 noundef 7, ptr noundef getelementptr inbounds nuw (%struct.pmix_server_globals_t, ptr @prte_pmix_server_globals, i32 0, i32 6))
  store i8 0, ptr getelementptr inbounds nuw (%struct.pmix_server_globals_t, ptr @prte_pmix_server_globals, i32 0, i32 10), align 1, !tbaa !23
  %12 = call i32 @pmix_mca_base_var_register(ptr noundef @.str, ptr noundef @.str.1, ptr noundef null, ptr noundef @.str.6, ptr noundef @.str.7, i32 noundef 7, ptr noundef getelementptr inbounds nuw (%struct.pmix_server_globals_t, ptr @prte_pmix_server_globals, i32 0, i32 10))
  store i8 0, ptr getelementptr inbounds nuw (%struct.pmix_server_globals_t, ptr @prte_pmix_server_globals, i32 0, i32 11), align 2, !tbaa !24
  %13 = call i32 @pmix_mca_base_var_register(ptr noundef @.str, ptr noundef @.str.1, ptr noundef null, ptr noundef @.str.8, ptr noundef @.str.9, i32 noundef 7, ptr noundef getelementptr inbounds nuw (%struct.pmix_server_globals_t, ptr @prte_pmix_server_globals, i32 0, i32 11))
  %14 = call i32 @pmix_mca_base_var_register(ptr noundef @.str, ptr noundef @.str.1, ptr noundef null, ptr noundef @.str.10, ptr noundef @.str.11, i32 noundef 5, ptr noundef @generate_dist)
  store i64 0, ptr getelementptr inbounds nuw (%struct.pmix_server_globals_t, ptr @prte_pmix_server_globals, i32 0, i32 18), align 8, !tbaa !25
  %15 = load ptr, ptr @generate_dist, align 8, !tbaa !26
  %16 = icmp ne ptr null, %15
  br i1 %16, label %17, label %68

17:                                               ; preds = %10
  call void @llvm.lifetime.start.p0(i64 8, ptr %2) #13
  %18 = load ptr, ptr @generate_dist, align 8, !tbaa !26
  %19 = call ptr @PMIx_Argv_split(ptr noundef %18, i32 noundef 44)
  store ptr %19, ptr %2, align 8, !tbaa !27
  store i32 0, ptr %1, align 4, !tbaa !29
  br label %20

20:                                               ; preds = %63, %17
  %21 = load ptr, ptr %2, align 8, !tbaa !27
  %22 = load i32, ptr %1, align 4, !tbaa !29
  %23 = sext i32 %22 to i64
  %24 = getelementptr inbounds ptr, ptr %21, i64 %23
  %25 = load ptr, ptr %24, align 8, !tbaa !26
  %26 = icmp ne ptr null, %25
  br i1 %26, label %27, label %66

27:                                               ; preds = %20
  %28 = load ptr, ptr %2, align 8, !tbaa !27
  %29 = load i32, ptr %1, align 4, !tbaa !29
  %30 = sext i32 %29 to i64
  %31 = getelementptr inbounds ptr, ptr %28, i64 %30
  %32 = load ptr, ptr %31, align 8, !tbaa !26
  %33 = call i32 @strcasecmp(ptr noundef %32, ptr noundef @.str.12) #14
  %34 = icmp eq i32 0, %33
  br i1 %34, label %35, label %38

35:                                               ; preds = %27
  %36 = load i64, ptr getelementptr inbounds nuw (%struct.pmix_server_globals_t, ptr @prte_pmix_server_globals, i32 0, i32 18), align 8, !tbaa !25
  %37 = or i64 %36, 8
  store i64 %37, ptr getelementptr inbounds nuw (%struct.pmix_server_globals_t, ptr @prte_pmix_server_globals, i32 0, i32 18), align 8, !tbaa !25
  br label %62

38:                                               ; preds = %27
  %39 = load ptr, ptr %2, align 8, !tbaa !27
  %40 = load i32, ptr %1, align 4, !tbaa !29
  %41 = sext i32 %40 to i64
  %42 = getelementptr inbounds ptr, ptr %39, i64 %41
  %43 = load ptr, ptr %42, align 8, !tbaa !26
  %44 = call i32 @strcasecmp(ptr noundef %43, ptr noundef @.str.13) #14
  %45 = icmp eq i32 0, %44
  br i1 %45, label %46, label %49

46:                                               ; preds = %38
  %47 = load i64, ptr getelementptr inbounds nuw (%struct.pmix_server_globals_t, ptr @prte_pmix_server_globals, i32 0, i32 18), align 8, !tbaa !25
  %48 = or i64 %47, 2
  store i64 %48, ptr getelementptr inbounds nuw (%struct.pmix_server_globals_t, ptr @prte_pmix_server_globals, i32 0, i32 18), align 8, !tbaa !25
  br label %61

49:                                               ; preds = %38
  %50 = load ptr, ptr %2, align 8, !tbaa !27
  %51 = load i32, ptr %1, align 4, !tbaa !29
  %52 = sext i32 %51 to i64
  %53 = getelementptr inbounds ptr, ptr %50, i64 %52
  %54 = load ptr, ptr %53, align 8, !tbaa !26
  %55 = call i32 @strcasecmp(ptr noundef %54, ptr noundef @.str.14) #14
  %56 = icmp eq i32 0, %55
  br i1 %56, label %57, label %60

57:                                               ; preds = %49
  %58 = load i64, ptr getelementptr inbounds nuw (%struct.pmix_server_globals_t, ptr @prte_pmix_server_globals, i32 0, i32 18), align 8, !tbaa !25
  %59 = or i64 %58, 4
  store i64 %59, ptr getelementptr inbounds nuw (%struct.pmix_server_globals_t, ptr @prte_pmix_server_globals, i32 0, i32 18), align 8, !tbaa !25
  br label %60

60:                                               ; preds = %57, %49
  br label %61

61:                                               ; preds = %60, %46
  br label %62

62:                                               ; preds = %61, %35
  br label %63

63:                                               ; preds = %62
  %64 = load i32, ptr %1, align 4, !tbaa !29
  %65 = add nsw i32 %64, 1
  store i32 %65, ptr %1, align 4, !tbaa !29
  br label %20, !llvm.loop !30

66:                                               ; preds = %20
  %67 = load ptr, ptr %2, align 8, !tbaa !27
  call void @PMIx_Argv_free(ptr noundef %67)
  call void @llvm.lifetime.end.p0(i64 8, ptr %2) #13
  br label %68

68:                                               ; preds = %66, %10
  store i8 0, ptr getelementptr inbounds nuw (%struct.pmix_server_globals_t, ptr @prte_pmix_server_globals, i32 0, i32 12), align 1, !tbaa !32
  %69 = call i32 @pmix_mca_base_var_register(ptr noundef @.str, ptr noundef @.str.1, ptr noundef null, ptr noundef @.str.15, ptr noundef @.str.16, i32 noundef 7, ptr noundef getelementptr inbounds nuw (%struct.pmix_server_globals_t, ptr @prte_pmix_server_globals, i32 0, i32 12))
  call void @llvm.lifetime.end.p0(i64 4, ptr %1) #13
  ret void
}