; Function Attrs: nounwind uwtable
define void @pmix_server_register_params() local_unnamed_addr #0 {
  store i32 -1, ptr getelementptr inbounds nuw (i8, ptr @prte_pmix_server_globals, i64 4), align 4, !tbaa !3
  %1 = tail call i32 @pmix_mca_base_var_register(ptr noundef nonnull @.str, ptr noundef nonnull @.str.1, ptr noundef null, ptr noundef nonnull @.str.2, ptr noundef nonnull @.str.3, i32 noundef 0, ptr noundef nonnull getelementptr inbounds nuw (i8, ptr @prte_pmix_server_globals, i64 4)) #17
  %2 = load i32, ptr getelementptr inbounds nuw (i8, ptr @prte_pmix_server_globals, i64 4), align 4, !tbaa !3
  %3 = icmp sgt i32 %2, -1
  br i1 %3, label %4, label %7

4:                                                ; preds = %0
  %5 = tail call i32 @pmix_output_open(ptr noundef null) #17
  store i32 %5, ptr getelementptr inbounds nuw (i8, ptr @prte_pmix_server_globals, i64 8), align 8, !tbaa !21
  %6 = load i32, ptr getelementptr inbounds nuw (i8, ptr @prte_pmix_server_globals, i64 4), align 4, !tbaa !3
  tail call void @pmix_output_set_verbosity(i32 noundef %5, i32 noundef %6) #17
  br label %7

7:                                                ; preds = %4, %0
  store i8 0, ptr getelementptr inbounds nuw (i8, ptr @prte_pmix_server_globals, i64 340), align 4, !tbaa !22
  %8 = tail call i32 @pmix_mca_base_var_register(ptr noundef nonnull @.str, ptr noundef nonnull @.str.1, ptr noundef null, ptr noundef nonnull @.str.4, ptr noundef nonnull @.str.5, i32 noundef 7, ptr noundef nonnull getelementptr inbounds nuw (i8, ptr @prte_pmix_server_globals, i64 340)) #17
  store i8 0, ptr getelementptr inbounds nuw (i8, ptr @prte_pmix_server_globals, i64 881), align 1, !tbaa !23
  %9 = tail call i32 @pmix_mca_base_var_register(ptr noundef nonnull @.str, ptr noundef nonnull @.str.1, ptr noundef null, ptr noundef nonnull @.str.6, ptr noundef nonnull @.str.7, i32 noundef 7, ptr noundef nonnull getelementptr inbounds nuw (i8, ptr @prte_pmix_server_globals, i64 881)) #17
  store i8 0, ptr getelementptr inbounds nuw (i8, ptr @prte_pmix_server_globals, i64 882), align 2, !tbaa !24
  %10 = tail call i32 @pmix_mca_base_var_register(ptr noundef nonnull @.str, ptr noundef nonnull @.str.1, ptr noundef null, ptr noundef nonnull @.str.8, ptr noundef nonnull @.str.9, i32 noundef 7, ptr noundef nonnull getelementptr inbounds nuw (i8, ptr @prte_pmix_server_globals, i64 882)) #17
  %11 = tail call i32 @pmix_mca_base_var_register(ptr noundef nonnull @.str, ptr noundef nonnull @.str.1, ptr noundef null, ptr noundef nonnull @.str.10, ptr noundef nonnull @.str.11, i32 noundef 5, ptr noundef nonnull @generate_dist) #17
  store i64 0, ptr getelementptr inbounds nuw (i8, ptr @prte_pmix_server_globals, i64 1168), align 8, !tbaa !25
  %12 = load ptr, ptr @generate_dist, align 8, !tbaa !26
  %.not = icmp eq ptr %12, null
  br i1 %.not, label %31, label %13

13:                                               ; preds = %7
  %14 = tail call ptr @PMIx_Argv_split(ptr noundef nonnull %12, i32 noundef 44) #17
  %15 = load ptr, ptr %14, align 8, !tbaa !26
  %.not1112 = icmp eq ptr %15, null
  br i1 %.not1112, label %._crit_edge, label %.lr.ph.preheader

.lr.ph.preheader:                                 ; preds = %13
  %.promoted = load i64, ptr getelementptr inbounds nuw (i8, ptr @prte_pmix_server_globals, i64 1168), align 8
  br label %.lr.ph

.lr.ph:                                           ; preds = %.lr.ph.preheader, %27
  %indvars.iv = phi i64 [ 0, %.lr.ph.preheader ], [ %indvars.iv.next, %27 ]
  %16 = phi ptr [ %15, %.lr.ph.preheader ], [ %30, %27 ]
  %17 = phi i64 [ %.promoted, %.lr.ph.preheader ], [ %28, %27 ]
  %18 = tail call i32 @strcasecmp(ptr noundef nonnull %16, ptr noundef nonnull @.str.12) #18
  %19 = icmp eq i32 %18, 0
  br i1 %19, label %.sink.split, label %20

20:                                               ; preds = %.lr.ph
  %21 = tail call i32 @strcasecmp(ptr noundef nonnull %16, ptr noundef nonnull @.str.13) #18
  %22 = icmp eq i32 %21, 0
  br i1 %22, label %.sink.split, label %23

23:                                               ; preds = %20
  %24 = tail call i32 @strcasecmp(ptr noundef nonnull %16, ptr noundef nonnull @.str.14) #18
  %25 = icmp eq i32 %24, 0
  br i1 %25, label %.sink.split, label %27

.sink.split:                                      ; preds = %23, %20, %.lr.ph
  %.sink15 = phi i64 [ 8, %.lr.ph ], [ 2, %20 ], [ 4, %23 ]
  %26 = or i64 %17, %.sink15
  store i64 %26, ptr getelementptr inbounds nuw (i8, ptr @prte_pmix_server_globals, i64 1168), align 8, !tbaa !25
  br label %27

27:                                               ; preds = %.sink.split, %23
  %28 = phi i64 [ %17, %23 ], [ %26, %.sink.split ]
  %indvars.iv.next = add nuw nsw i64 %indvars.iv, 1
  %29 = getelementptr inbounds nuw ptr, ptr %14, i64 %indvars.iv.next
  %30 = load ptr, ptr %29, align 8, !tbaa !26
  %.not11 = icmp eq ptr %30, null
  br i1 %.not11, label %._crit_edge, label %.lr.ph, !llvm.loop !27

._crit_edge:                                      ; preds = %27, %13
  tail call void @PMIx_Argv_free(ptr noundef nonnull %14) #17
  br label %31

31:                                               ; preds = %._crit_edge, %7
  store i8 0, ptr getelementptr inbounds nuw (i8, ptr @prte_pmix_server_globals, i64 883), align 1, !tbaa !29
  %32 = tail call i32 @pmix_mca_base_var_register(ptr noundef nonnull @.str, ptr noundef nonnull @.str.1, ptr noundef null, ptr noundef nonnull @.str.15, ptr noundef nonnull @.str.16, i32 noundef 7, ptr noundef nonnull getelementptr inbounds nuw (i8, ptr @prte_pmix_server_globals, i64 883)) #17
  ret void
}